target datalayout = "e-m:e-p270:32:32-p271:32:32-p272:64:64-i64:64-i128:128-f80:128-n8:16:32:64-S128"
target triple = "x86_64-pc-linux-gnu"

%struct.IndexScanDescData = type { ptr, ptr, ptr, i32, i32, ptr, ptr, i8, i8, i8, i8, i8, ptr, ptr, ptr, ptr, ptr, %struct.ItemPointerData, i8, ptr, i8, ptr, ptr, i8, ptr }
%struct.ItemPointerData = type { %struct.BlockIdData, i16 }
%struct.BlockIdData = type { i16, i16 }
%struct.GISTSearchHeapItem = type { %struct.ItemPointerData, i8, i8, ptr, i16 }
%struct.GISTSearchItem = type { %struct.pairingheap_node, i32, %union.anon, [0 x %struct.IndexOrderByDistance] }
%struct.pairingheap_node = type { ptr, ptr, ptr }
%union.anon = type { %struct.GISTSearchHeapItem }
%struct.IndexOrderByDistance = type { double, i8 }

; Function Attrs: nounwind uwtable
define internal i32 @pairingheap_GISTSearchItem_cmp(ptr noundef %0, ptr noundef %1, ptr noundef %2) #0 {
  %4 = alloca i32, align 4
  %5 = alloca ptr, align 8
  %6 = alloca ptr, align 8
  %7 = alloca ptr, align 8
  %8 = alloca ptr, align 8
  %9 = alloca ptr, align 8
  %10 = alloca ptr, align 8
  %11 = alloca i32, align 4
  %12 = alloca i32, align 4
  %13 = alloca i32, align 4
  store ptr %0, ptr %5, align 8
  store ptr %1, ptr %6, align 8
  store ptr %2, ptr %7, align 8
  call void @llvm.lifetime.start.p0(i64 8, ptr %8) #7
  %14 = load ptr, ptr %5, align 8
  store ptr %14, ptr %8, align 8
  call void @llvm.lifetime.start.p0(i64 8, ptr %9) #7
  %15 = load ptr, ptr %6, align 8
  store ptr %15, ptr %9, align 8
  call void @llvm.lifetime.start.p0(i64 8, ptr %10) #7
  %16 = load ptr, ptr %7, align 8
  store ptr %16, ptr %10, align 8
  call void @llvm.lifetime.start.p0(i64 4, ptr %11) #7
  store i32 0, ptr %11, align 4
  br label %17

17:                                               ; preds = %80, %3
  %18 = load i32, ptr %11, align 4
  %19 = load ptr, ptr %10, align 8
  %20 = getelementptr inbounds nuw %struct.IndexScanDescData, ptr %19, i32 0, i32 4
  %21 = load i32, ptr %20, align 4
  %22 = icmp slt i32 %18, %21
  br i1 %22, label %23, label %83

23:                                               ; preds = %17
  %24 = load ptr, ptr %8, align 8
  %25 = getelementptr inbounds nuw %struct.GISTSearchItem, ptr %24, i32 0, i32 3
  %26 = load i32, ptr %11, align 4
  %27 = sext i32 %26 to i64
  %28 = getelementptr inbounds [0 x %struct.IndexOrderByDistance], ptr %25, i64 0, i64 %27
  %29 = getelementptr inbounds nuw %struct.IndexOrderByDistance, ptr %28, i32 0, i32 1
  %30 = load i8, ptr %29, align 8, !range !4, !noundef !5
  %31 = trunc i8 %30 to i1
  br i1 %31, label %32, label %43

32:                                               ; preds = %23
  %33 = load ptr, ptr %9, align 8
  %34 = getelementptr inbounds nuw %struct.GISTSearchItem, ptr %33, i32 0, i32 3
  %35 = load i32, ptr %11, align 4
  %36 = sext i32 %35 to i64
  %37 = getelementptr inbounds [0 x %struct.IndexOrderByDistance], ptr %34, i64 0, i64 %36
  %38 = getelementptr inbounds nuw %struct.IndexOrderByDistance, ptr %37, i32 0, i32 1
  %39 = load i8, ptr %38, align 8, !range !4, !noundef !5
  %40 = trunc i8 %39 to i1
  br i1 %40, label %42, label %41

41:                                               ; preds = %32
  store i32 -1, ptr %4, align 4
  store i32 1, ptr %12, align 4
  br label %106

42:                                               ; preds = %32
  br label %79

43:                                               ; preds = %23
  %44 = load ptr, ptr %9, align 8
  %45 = getelementptr inbounds nuw %struct.GISTSearchItem, ptr %44, i32 0, i32 3
  %46 = load i32, ptr %11, align 4
  %47 = sext i32 %46 to i64
  %48 = getelementptr inbounds [0 x %struct.IndexOrderByDistance], ptr %45, i64 0, i64 %47
  %49 = getelementptr inbounds nuw %struct.IndexOrderByDistance, ptr %48, i32 0, i32 1
  %50 = load i8, ptr %49, align 8, !range !4, !noundef !5
  %51 = trunc i8 %50 to i1
  br i1 %51, label %52, label %53

52:                                               ; preds = %43
  store i32 1, ptr %4, align 4
  store i32 1, ptr %12, align 4
  br label %106

53:                                               ; preds = %43
  call void @llvm.lifetime.start.p0(i64 4, ptr %13) #7
  %54 = load ptr, ptr %8, align 8
  %55 = getelementptr inbounds nuw %struct.GISTSearchItem, ptr %54, i32 0, i32 3
  %56 = load i32, ptr %11, align 4
  %57 = sext i32 %56 to i64
  %58 = getelementptr inbounds [0 x %struct.IndexOrderByDistance], ptr %55, i64 0, i64 %57
  %59 = getelementptr inbounds nuw %struct.IndexOrderByDistance, ptr %58, i32 0, i32 0
  %60 = load double, ptr %59, align 8
  %61 = load ptr, ptr %9, align 8
  %62 = getelementptr inbounds nuw %struct.GISTSearchItem, ptr %61, i32 0, i32 3
  %63 = load i32, ptr %11, align 4
  %64 = sext i32 %63 to i64
  %65 = getelementptr inbounds [0 x %struct.IndexOrderByDistance], ptr %62, i64 0, i64 %64
  %66 = getelementptr inbounds nuw %struct.IndexOrderByDistance, ptr %65, i32 0, i32 0
  %67 = load double, ptr %66, align 8
  %68 = call i32 @float8_cmp_internal(double noundef %60, double noundef %67)
  %69 = sub i32 0, %68
  store i32 %69, ptr %13, align 4
  %70 = load i32, ptr %13, align 4
  %71 = icmp ne i32 %70, 0
  br i1 %71, label %72, label %74

72:                                               ; preds = %53
  %73 = load i32, ptr %13, align 4
  store i32 %73, ptr %4, align 4
  store i32 1, ptr %12, align 4
  br label %75

74:                                               ; preds = %53
  store i32 0, ptr %12, align 4
  br label %75

75:                                               ; preds = %74, %72
  call void @llvm.lifetime.end.p0(i64 4, ptr %13) #7
  %76 = load i32, ptr %12, align 4
  switch i32 %76, label %106 [
    i32 0, label %77
  ]

77:                                               ; preds = %75
  br label %78

78:                                               ; preds = %77
  br label %79

79:                                               ; preds = %78, %42
  br label %80

80:                                               ; preds = %79
  %81 = load i32, ptr %11, align 4
  %82 = add i32 %81, 1
  store i32 %82, ptr %11, align 4
  br label %17, !llvm.loop !13

83:                                               ; preds = %17
  %84 = load ptr, ptr %8, align 8
  %85 = getelementptr inbounds nuw %struct.GISTSearchItem, ptr %84, i32 0, i32 1
  %86 = load i32, ptr %85, align 8
  %87 = icmp eq i32 %86, -1
  br i1 %87, label %88, label %94

88:                                               ; preds = %83
  %89 = load ptr, ptr %9, align 8
  %90 = getelementptr inbounds nuw %struct.GISTSearchItem, ptr %89, i32 0, i32 1
  %91 = load i32, ptr %90, align 8
  %92 = icmp eq i32 %91, -1
  br i1 %92, label %94, label %93

93:                                               ; preds = %88
  store i32 1, ptr %4, align 4
  store i32 1, ptr %12, align 4
  br label %106

94:                                               ; preds = %88, %83
  %95 = load ptr, ptr %8, align 8
  %96 = getelementptr inbounds nuw %struct.GISTSearchItem, ptr %95, i32 0, i32 1
  %97 = load i32, ptr %96, align 8
  %98 = icmp eq i32 %97, -1
  br i1 %98, label %105, label %99

99:                                               ; preds = %94
  %100 = load ptr, ptr %9, align 8
  %101 = getelementptr inbounds nuw %struct.GISTSearchItem, ptr %100, i32 0, i32 1
  %102 = load i32, ptr %101, align 8
  %103 = icmp eq i32 %102, -1
  br i1 %103, label %104, label %105

104:                                              ; preds = %99
  store i32 -1, ptr %4, align 4
  store i32 1, ptr %12, align 4
  br label %106

105:                                              ; preds = %99, %94
  store i32 0, ptr %4, align 4
  store i32 1, ptr %12, align 4
  br label %106

106:                                              ; preds = %105, %104, %93, %75, %52, %41
  call void @llvm.lifetime.end.p0(i64 4, ptr %11) #7
  call void @llvm.lifetime.end.p0(i64 8, ptr %10) #7
  call void @llvm.lifetime.end.p0(i64 8, ptr %9) #7
  call void @llvm.lifetime.end.p0(i64 8, ptr %8) #7
  %107 = load i32, ptr %4, align 4
  ret i32 %107
}