; Function Attrs: nounwind uwtable
define internal i32 @pairingheap_GISTSearchItem_cmp(ptr noundef readonly captures(none) %0, ptr noundef readonly captures(none) %1, ptr noundef readonly captures(none) %2) #0 {
  %4 = getelementptr inbounds nuw i8, ptr %2, i64 28
  %5 = load i32, ptr %4, align 4
  %6 = icmp sgt i32 %5, 0
  br i1 %6, label %.lr.ph, label %._crit_edge

.lr.ph:                                           ; preds = %3
  %7 = getelementptr inbounds nuw i8, ptr %0, i64 56
  %8 = getelementptr inbounds nuw i8, ptr %1, i64 56
  %9 = getelementptr i8, ptr %1, i64 64
  br label %10

10:                                               ; preds = %.lr.ph, %29
  %11 = phi i32 [ %5, %.lr.ph ], [ %30, %29 ]
  %indvars.iv = phi i64 [ 0, %.lr.ph ], [ %indvars.iv.next, %29 ]
  %12 = getelementptr inbounds nuw [0 x %struct.IndexOrderByDistance], ptr %7, i64 0, i64 %indvars.iv
  %13 = getelementptr inbounds nuw i8, ptr %12, i64 8
  %14 = load i8, ptr %13, align 8, !range !4, !noundef !5
  %15 = trunc nuw i8 %14 to i1
  br i1 %15, label %16, label %20

16:                                               ; preds = %10
  %.idx = shl nuw nsw i64 %indvars.iv, 4
  %17 = getelementptr i8, ptr %9, i64 %.idx
  %18 = load i8, ptr %17, align 8, !range !4, !noundef !5
  %19 = trunc nuw i8 %18 to i1
  br i1 %19, label %29, label %.loopexit

20:                                               ; preds = %10
  %21 = getelementptr inbounds nuw [0 x %struct.IndexOrderByDistance], ptr %8, i64 0, i64 %indvars.iv
  %22 = getelementptr inbounds nuw i8, ptr %21, i64 8
  %23 = load i8, ptr %22, align 8, !range !4, !noundef !5
  %24 = trunc nuw i8 %23 to i1
  br i1 %24, label %.loopexit, label %25

25:                                               ; preds = %20
  %26 = load double, ptr %12, align 8
  %27 = load double, ptr %21, align 8
  %28 = tail call i32 @float8_cmp_internal(double noundef %26, double noundef %27) #6
  %.not = icmp eq i32 %28, 0
  br i1 %.not, label %._crit_edge32, label %.loopexit.split.loop.exit

._crit_edge32:                                    ; preds = %25
  %.pre = load i32, ptr %4, align 4
  br label %29

29:                                               ; preds = %._crit_edge32, %16
  %30 = phi i32 [ %.pre, %._crit_edge32 ], [ %11, %16 ]
  %indvars.iv.next = add nuw nsw i64 %indvars.iv, 1
  %31 = sext i32 %30 to i64
  %32 = icmp slt i64 %indvars.iv.next, %31
  br i1 %32, label %10, label %._crit_edge, !llvm.loop !13

._crit_edge:                                      ; preds = %29, %3
  %33 = getelementptr inbounds nuw i8, ptr %0, i64 24
  %34 = load i32, ptr %33, align 8
  %35 = icmp eq i32 %34, -1
  %36 = getelementptr inbounds nuw i8, ptr %1, i64 24
  %37 = load i32, ptr %36, align 8
  %38 = icmp eq i32 %37, -1
  br i1 %35, label %39, label %40

39:                                               ; preds = %._crit_edge
  br i1 %38, label %.thread, label %.loopexit

40:                                               ; preds = %._crit_edge
  br i1 %38, label %.loopexit, label %.thread

.thread:                                          ; preds = %39, %40
  br label %.loopexit

.loopexit.split.loop.exit:                        ; preds = %25
  %41 = sub i32 0, %28
  br label %.loopexit

.loopexit:                                        ; preds = %16, %20, %.loopexit.split.loop.exit, %40, %39, %.thread
  %.1 = phi i32 [ 0, %.thread ], [ 1, %39 ], [ -1, %40 ], [ %41, %.loopexit.split.loop.exit ], [ -1, %16 ], [ 1, %20 ]
  ret i32 %.1
}